target datalayout = "e-m:e-p270:32:32-p271:32:32-p272:64:64-i64:64-i128:128-f80:128-n8:16:32:64-S128"
target triple = "x86_64-unknown-linux-gnu"

%struct.tdefl_compressor = type { ptr, ptr, i32, [2 x i32], i32, i32, i32, i32, i32, ptr, ptr, ptr, ptr, i32, i32, i32, i32, i32, i32, i32, i32, i32, i32, i32, i32, i32, i32, ptr, ptr, ptr, ptr, i32, ptr, i64, i64, [33025 x i8], [3 x [288 x i16]], [3 x [288 x i16]], [3 x [288 x i8]], [65536 x i8], [32768 x i16], [32768 x i16], [85196 x i8] }
%struct.mz_zip_archive = type { i64, i64, i32, i32, i32, i32, i64, ptr, ptr, ptr, ptr, ptr, ptr, ptr, ptr, ptr }
%struct.mz_zip_writer_add_state = type { ptr, i64, i64 }
%struct.zip_t = type { %struct.mz_zip_archive, i32, %struct.zip_entry_t }
%struct.zip_entry_t = type { i32, ptr, i64, i64, i32, i64, [30 x i8], i64, i16, %struct.mz_zip_writer_add_state, %struct.tdefl_compressor, i32, i64 }

; Function Attrs: nounwind uwtable
define hidden i32 @zip_entry_index(ptr noundef %zip) #0 {
entry:
  %retval = alloca i32, align 4
  %zip.addr = alloca ptr, align 8
  store ptr %zip, ptr %zip.addr, align 8
  %0 = load ptr, ptr %zip.addr, align 8
  %tobool = icmp ne ptr %0, null
  br i1 %tobool, label %if.end, label %if.then

if.then:                                          ; preds = %entry
  store i32 -1, ptr %retval, align 4
  br label %return

if.end:                                           ; preds = %entry
  %1 = load ptr, ptr %zip.addr, align 8
  %entry1 = getelementptr inbounds %struct.zip_t, ptr %1, i32 0, i32 2
  %index = getelementptr inbounds %struct.zip_entry_t, ptr %entry1, i32 0, i32 0
  %2 = load i32, ptr %index, align 8
  store i32 %2, ptr %retval, align 4
  br label %return

return:                                           ; preds = %if.end, %if.then
  %3 = load i32, ptr %retval, align 4
  ret i32 %3
}