; Function Attrs: mustprogress nofree norecurse nosync nounwind willreturn memory(argmem: read) uwtable
define hidden i32 @zip_entry_index(ptr noundef readonly %zip) local_unnamed_addr #8 {
entry:
  %tobool.not = icmp eq ptr %zip, null
  br i1 %tobool.not, label %return, label %if.end

if.end:                                           ; preds = %entry
  %entry1 = getelementptr inbounds nuw i8, ptr %zip, i64 120
  %0 = load i32, ptr %entry1, align 8
  br label %return

return:                                           ; preds = %entry, %if.end
  %retval.0 = phi i32 [ %0, %if.end ], [ -1, %entry ]
  ret i32 %retval.0
}